target datalayout = "e-m:e-p270:32:32-p271:32:32-p272:64:64-i64:64-i128:128-f80:128-n8:16:32:64-S128"
target triple = "x86_64-pc-linux-gnu"

%"class.std::__cxx11::basic_string" = type { %"struct.std::__cxx11::basic_string<char>::_Alloc_hider", i64, %union.anon }
%"struct.std::__cxx11::basic_string<char>::_Alloc_hider" = type { ptr }
%union.anon = type { i64, [8 x i8] }
%struct.TimeResults = type { i32, i32 }
%"class.std::function" = type { %"class.std::_Function_base", ptr }
%"class.std::_Function_base" = type { %"union.std::_Any_data", ptr }
%"union.std::_Any_data" = type { %"union.std::_Nocopy_types" }
%"union.std::_Nocopy_types" = type { { i64, i64 } }
%class.anon.8 = type { i64, ptr }

@.str.30 = private unnamed_addr constant [56 x i8] c"Did %u %s operations in %uus (%.1f ops/sec): %.1f MB/s\0A\00", align 1

; Function Attrs: mustprogress nounwind uwtable
define linkonce_odr noundef ptr @_ZNSt9_Any_data9_M_accessEv(ptr noundef nonnull align 8 dereferenceable(16) %0) #2 comdat align 2 {
  %2 = alloca ptr, align 8
  store ptr %0, ptr %2, align 8, !tbaa !92
  %3 = load ptr, ptr %2, align 8
  %4 = getelementptr inbounds [16 x i8], ptr %3, i64 0, i64 0
  ret ptr %4
}

; Function Attrs: mustprogress nounwind uwtable
define available_externally noundef ptr @_ZNKSt7__cxx1112basic_stringIcSt11char_traitsIcESaIcEE7_M_dataEv(ptr noundef nonnull align 8 dereferenceable(32) %0) #2 align 2 {
  %2 = alloca ptr, align 8
  store ptr %0, ptr %2, align 8, !tbaa !17
  %3 = load ptr, ptr %2, align 8
  %4 = getelementptr inbounds nuw %"class.std::__cxx11::basic_string", ptr %3, i32 0, i32 0
  %5 = getelementptr inbounds nuw %"struct.std::__cxx11::basic_string<char>::_Alloc_hider", ptr %4, i32 0, i32 0
  %6 = load ptr, ptr %5, align 8, !tbaa !71
  ret ptr %6
}

; Function Attrs: mustprogress nounwind uwtable
define internal void @"_ZNSt14_Function_base13_Base_managerIZL16SpeedRandomChunkNSt7__cxx1112basic_stringIcSt11char_traitsIcESaIcEEEmE3$_0E9_M_createIS7_EEvRSt9_Any_dataOT_St17integral_constantIbLb1EE"(ptr noundef nonnull align 8 dereferenceable(16) %0, ptr noundef nonnull align 8 dereferenceable(16) %1) #2 align 2 {
  %3 = alloca ptr, align 8
  %4 = alloca ptr, align 8
  store ptr %0, ptr %3, align 8, !tbaa !92
  store ptr %1, ptr %4, align 8, !tbaa !59
  %5 = load ptr, ptr %3, align 8, !tbaa !92
  %6 = call noundef ptr @_ZNSt9_Any_data9_M_accessEv(ptr noundef nonnull align 8 dereferenceable(16) %5) #14
  %7 = load ptr, ptr %4, align 8, !tbaa !59
  call void @llvm.memcpy.p0.p0.i64(ptr align 8 %6, ptr align 8 %7, i64 16, i1 false), !tbaa.struct !137
  ret void
}

; Function Attrs: mustprogress nounwind uwtable
define available_externally noundef ptr @_ZNKSt7__cxx1112basic_stringIcSt11char_traitsIcESaIcEE5c_strEv(ptr noundef nonnull align 8 dereferenceable(32) %0) #2 align 2 {
  %2 = alloca ptr, align 8
  store ptr %0, ptr %2, align 8, !tbaa !17
  %3 = load ptr, ptr %2, align 8
  %4 = call noundef ptr @_ZNKSt7__cxx1112basic_stringIcSt11char_traitsIcESaIcEE7_M_dataEv(ptr noundef nonnull align 8 dereferenceable(32) %3)
  ret ptr %4
}

; Function Attrs: mustprogress nounwind uwtable
define internal void @"_ZNSt14_Function_base13_Base_managerIZL16SpeedRandomChunkNSt7__cxx1112basic_stringIcSt11char_traitsIcESaIcEEEmE3$_0E15_M_init_functorIS7_EEvRSt9_Any_dataOT_"(ptr noundef nonnull align 8 dereferenceable(16) %0, ptr noundef nonnull align 8 dereferenceable(16) %1) #2 align 2 personality ptr @__gxx_personality_v0 {
  %3 = alloca ptr, align 8
  %4 = alloca ptr, align 8
  store ptr %0, ptr %3, align 8, !tbaa !92
  store ptr %1, ptr %4, align 8, !tbaa !59
  %5 = load ptr, ptr %3, align 8, !tbaa !92
  %6 = load ptr, ptr %4, align 8, !tbaa !59
  invoke void @"_ZNSt14_Function_base13_Base_managerIZL16SpeedRandomChunkNSt7__cxx1112basic_stringIcSt11char_traitsIcESaIcEEEmE3$_0E9_M_createIS7_EEvRSt9_Any_dataOT_St17integral_constantIbLb1EE"(ptr noundef nonnull align 8 dereferenceable(16) %5, ptr noundef nonnull align 8 dereferenceable(16) %6)
          to label %7 unwind label %8

7:                                                ; preds = %2
  ret void

8:                                                ; preds = %2
  %9 = landingpad { ptr, i32 }
          catch ptr null
  %10 = extractvalue { ptr, i32 } %9, 0
  call void @__clang_call_terminate(ptr %10) #15
  unreachable
}

; Function Attrs: mustprogress nounwind uwtable
define internal noundef zeroext i1 @"_ZNSt14_Function_base13_Base_managerIZL16SpeedRandomChunkNSt7__cxx1112basic_stringIcSt11char_traitsIcESaIcEEEmE3$_0E21_M_not_empty_functionIS7_EEbRKT_"(ptr noundef nonnull align 8 dereferenceable(16) %0) #2 align 2 {
  %2 = alloca ptr, align 8
  store ptr %0, ptr %2, align 8, !tbaa !59
  ret i1 true
}

; Function Attrs: mustprogress nounwind uwtable
define linkonce_odr void @_ZNSt14_Function_baseC2Ev(ptr noundef nonnull align 8 dereferenceable(24) %0) unnamed_addr #2 comdat align 2 {
  %2 = alloca ptr, align 8
  store ptr %0, ptr %2, align 8, !tbaa !64
  %3 = load ptr, ptr %2, align 8
  %4 = getelementptr inbounds nuw %"class.std::_Function_base", ptr %3, i32 0, i32 0
  store ptr null, ptr %4, align 8, !tbaa !91
  %5 = getelementptr inbounds nuw %"class.std::_Function_base", ptr %3, i32 0, i32 1
  store ptr null, ptr %5, align 8, !tbaa !63
  ret void
}

; Function Attrs: mustprogress uwtable
define linkonce_odr hidden void @_ZN11TimeResults14PrintWithBytesERKNSt7__cxx1112basic_stringIcSt11char_traitsIcESaIcEEEm(ptr noundef nonnull align 4 dereferenceable(8) %0, ptr noundef nonnull align 8 dereferenceable(32) %1, i64 noundef %2) #0 comdat align 2 {
  %4 = alloca ptr, align 8
  %5 = alloca ptr, align 8
  %6 = alloca i64, align 8
  store ptr %0, ptr %4, align 8, !tbaa !49
  store ptr %1, ptr %5, align 8, !tbaa !17
  store i64 %2, ptr %6, align 8, !tbaa !13
  %7 = load ptr, ptr %4, align 8
  %8 = getelementptr inbounds nuw %struct.TimeResults, ptr %7, i32 0, i32 0
  %9 = load i32, ptr %8, align 4, !tbaa !58
  %10 = load ptr, ptr %5, align 8, !tbaa !17
  %11 = call noundef ptr @_ZNKSt7__cxx1112basic_stringIcSt11char_traitsIcESaIcEE5c_strEv(ptr noundef nonnull align 8 dereferenceable(32) %10) #14
  %12 = getelementptr inbounds nuw %struct.TimeResults, ptr %7, i32 0, i32 1
  %13 = load i32, ptr %12, align 4, !tbaa !56
  %14 = getelementptr inbounds nuw %struct.TimeResults, ptr %7, i32 0, i32 0
  %15 = load i32, ptr %14, align 4, !tbaa !58
  %16 = uitofp i32 %15 to double
  %17 = getelementptr inbounds nuw %struct.TimeResults, ptr %7, i32 0, i32 1
  %18 = load i32, ptr %17, align 4, !tbaa !56
  %19 = uitofp i32 %18 to double
  %20 = fdiv double %16, %19
  %21 = fmul double %20, 1.000000e+06
  %22 = load i64, ptr %6, align 8, !tbaa !13
  %23 = getelementptr inbounds nuw %struct.TimeResults, ptr %7, i32 0, i32 0
  %24 = load i32, ptr %23, align 4, !tbaa !58
  %25 = zext i32 %24 to i64
  %26 = mul i64 %22, %25
  %27 = uitofp i64 %26 to double
  %28 = getelementptr inbounds nuw %struct.TimeResults, ptr %7, i32 0, i32 1
  %29 = load i32, ptr %28, align 4, !tbaa !56
  %30 = uitofp i32 %29 to double
  %31 = fdiv double %27, %30
  %32 = call i32 (ptr, ...) @printf(ptr noundef @.str.30, i32 noundef %9, ptr noundef %11, i32 noundef %13, double noundef %21, double noundef %31)
  ret void
}

; Function Attrs: mustprogress nounwind uwtable
define linkonce_odr void @_ZNSt14_Function_baseD2Ev(ptr noundef nonnull align 8 dereferenceable(24) %0) unnamed_addr #2 comdat align 2 personality ptr @__gxx_personality_v0 {
  %2 = alloca ptr, align 8
  store ptr %0, ptr %2, align 8, !tbaa !64
  %3 = load ptr, ptr %2, align 8
  %4 = getelementptr inbounds nuw %"class.std::_Function_base", ptr %3, i32 0, i32 1
  %5 = load ptr, ptr %4, align 8, !tbaa !63
  %6 = icmp ne ptr %5, null
  br i1 %6, label %7, label %14

7:                                                ; preds = %1
  %8 = getelementptr inbounds nuw %"class.std::_Function_base", ptr %3, i32 0, i32 1
  %9 = load ptr, ptr %8, align 8, !tbaa !63
  %10 = getelementptr inbounds nuw %"class.std::_Function_base", ptr %3, i32 0, i32 0
  %11 = getelementptr inbounds nuw %"class.std::_Function_base", ptr %3, i32 0, i32 0
  %12 = invoke noundef zeroext i1 %9(ptr noundef nonnull align 8 dereferenceable(16) %10, ptr noundef nonnull align 8 dereferenceable(16) %11, i32 noundef 3)
          to label %13 unwind label %15

13:                                               ; preds = %7
  br label %14

14:                                               ; preds = %13, %1
  ret void

15:                                               ; preds = %7
  %16 = landingpad { ptr, i32 }
          catch ptr null
  %17 = extractvalue { ptr, i32 } %16, 0
  call void @__clang_call_terminate(ptr %17) #15
  unreachable
}

; Function Attrs: mustprogress nounwind uwtable
define internal void @"_ZNSt8functionIFbvEEC2IZL16SpeedRandomChunkNSt7__cxx1112basic_stringIcSt11char_traitsIcESaIcEEEmE3$_0vEEOT_"(ptr noundef nonnull align 8 dereferenceable(32) %0, ptr noundef nonnull align 8 dereferenceable(16) %1) unnamed_addr #2 align 2 {
  %3 = alloca ptr, align 8
  %4 = alloca ptr, align 8
  store ptr %0, ptr %3, align 8, !tbaa !51
  store ptr %1, ptr %4, align 8, !tbaa !59
  %5 = load ptr, ptr %3, align 8
  %6 = getelementptr inbounds i8, ptr %5, i64 0
  call void @llvm.memset.p0.i64(ptr align 8 %6, i8 0, i64 24, i1 false)
  call void @_ZNSt14_Function_baseC2Ev(ptr noundef nonnull align 8 dereferenceable(24) %5) #14
  %7 = getelementptr inbounds nuw %"class.std::function", ptr %5, i32 0, i32 1
  store ptr null, ptr %7, align 8, !tbaa !60
  %8 = load ptr, ptr %4, align 8, !tbaa !59
  %9 = call noundef zeroext i1 @"_ZNSt14_Function_base13_Base_managerIZL16SpeedRandomChunkNSt7__cxx1112basic_stringIcSt11char_traitsIcESaIcEEEmE3$_0E21_M_not_empty_functionIS7_EEbRKT_"(ptr noundef nonnull align 8 dereferenceable(16) %8) #14
  br i1 %9, label %10, label %15

10:                                               ; preds = %2
  %11 = getelementptr inbounds nuw %"class.std::_Function_base", ptr %5, i32 0, i32 0
  %12 = load ptr, ptr %4, align 8, !tbaa !59
  call void @"_ZNSt14_Function_base13_Base_managerIZL16SpeedRandomChunkNSt7__cxx1112basic_stringIcSt11char_traitsIcESaIcEEEmE3$_0E15_M_init_functorIS7_EEvRSt9_Any_dataOT_"(ptr noundef nonnull align 8 dereferenceable(16) %11, ptr noundef nonnull align 8 dereferenceable(16) %12) #14
  %13 = getelementptr inbounds nuw %"class.std::function", ptr %5, i32 0, i32 1
  store ptr @"_ZNSt17_Function_handlerIFbvEZL16SpeedRandomChunkNSt7__cxx1112basic_stringIcSt11char_traitsIcESaIcEEEmE3$_0E9_M_invokeERKSt9_Any_data", ptr %13, align 8, !tbaa !60
  %14 = getelementptr inbounds nuw %"class.std::_Function_base", ptr %5, i32 0, i32 1
  store ptr @"_ZNSt17_Function_handlerIFbvEZL16SpeedRandomChunkNSt7__cxx1112basic_stringIcSt11char_traitsIcESaIcEEEmE3$_0E10_M_managerERSt9_Any_dataRKS9_St18_Manager_operation", ptr %14, align 8, !tbaa !63
  br label %15

15:                                               ; preds = %10, %2
  ret void
}

; Function Attrs: mustprogress uwtable
define internal noundef zeroext i1 @_ZL16SpeedRandomChunkNSt7__cxx1112basic_stringIcSt11char_traitsIcESaIcEEEm(ptr noundef %0, i64 noundef %1) #0 personality ptr @__gxx_personality_v0 {
  %3 = alloca i1, align 1
  %4 = alloca ptr, align 8
  %5 = alloca i64, align 8
  %6 = alloca [8192 x i8], align 16
  %7 = alloca i32, align 4
  %8 = alloca %struct.TimeResults, align 4
  %9 = alloca %"class.std::function", align 8
  %10 = alloca %class.anon.8, align 8
  %11 = alloca ptr, align 8
  %12 = alloca i32, align 4
  store ptr %0, ptr %4, align 8, !tbaa !17
  store i64 %1, ptr %5, align 8, !tbaa !13
  call void @llvm.lifetime.start.p0(i64 8192, ptr %6) #14
  %13 = load i64, ptr %5, align 8, !tbaa !13
  %14 = icmp ugt i64 %13, 8192
  br i1 %14, label %15, label %16

15:                                               ; preds = %2
  store i1 false, ptr %3, align 1
  store i32 1, ptr %7, align 4
  br label %31

16:                                               ; preds = %2
  call void @llvm.lifetime.start.p0(i64 8, ptr %8) #14
  call void @llvm.lifetime.start.p0(i64 16, ptr %10) #14
  %17 = getelementptr inbounds nuw %class.anon.8, ptr %10, i32 0, i32 0
  %18 = load i64, ptr %5, align 8, !tbaa !13
  store i64 %18, ptr %17, align 8, !tbaa !135
  %19 = getelementptr inbounds nuw %class.anon.8, ptr %10, i32 0, i32 1
  store ptr %6, ptr %19, align 8, !tbaa !28
  call void @"_ZNSt8functionIFbvEEC2IZL16SpeedRandomChunkNSt7__cxx1112basic_stringIcSt11char_traitsIcESaIcEEEmE3$_0vEEOT_"(ptr noundef nonnull align 8 dereferenceable(32) %9, ptr noundef nonnull align 8 dereferenceable(16) %10) #14
  %20 = invoke noundef zeroext i1 @_ZL12TimeFunctionP11TimeResultsSt8functionIFbvEE(ptr noundef %8, ptr noundef %9)
          to label %21 unwind label %24

21:                                               ; preds = %16
  %22 = xor i1 %20, true
  call void @_ZNSt14_Function_baseD2Ev(ptr noundef nonnull align 8 dereferenceable(32) %9) #14
  call void @llvm.lifetime.end.p0(i64 16, ptr %10) #14
  br i1 %22, label %23, label %28

23:                                               ; preds = %21
  store i1 false, ptr %3, align 1
  store i32 1, ptr %7, align 4
  br label %30

24:                                               ; preds = %16
  %25 = landingpad { ptr, i32 }
          cleanup
  %26 = extractvalue { ptr, i32 } %25, 0
  store ptr %26, ptr %11, align 8
  %27 = extractvalue { ptr, i32 } %25, 1
  store i32 %27, ptr %12, align 4
  call void @_ZNSt14_Function_baseD2Ev(ptr noundef nonnull align 8 dereferenceable(32) %9) #14
  call void @llvm.lifetime.end.p0(i64 16, ptr %10) #14
  call void @llvm.lifetime.end.p0(i64 8, ptr %8) #14
  call void @llvm.lifetime.end.p0(i64 8192, ptr %6) #14
  br label %33

28:                                               ; preds = %21
  %29 = load i64, ptr %5, align 8, !tbaa !13
  call void @_ZN11TimeResults14PrintWithBytesERKNSt7__cxx1112basic_stringIcSt11char_traitsIcESaIcEEEm(ptr noundef nonnull align 4 dereferenceable(8) %8, ptr noundef nonnull align 8 dereferenceable(32) %0, i64 noundef %29)
  store i1 true, ptr %3, align 1
  store i32 1, ptr %7, align 4
  br label %30

30:                                               ; preds = %28, %23
  call void @llvm.lifetime.end.p0(i64 8, ptr %8) #14
  br label %31

31:                                               ; preds = %30, %15
  call void @llvm.lifetime.end.p0(i64 8192, ptr %6) #14
  %32 = load i1, ptr %3, align 1
  ret i1 %32

33:                                               ; preds = %24
  %34 = load ptr, ptr %11, align 8
  %35 = load i32, ptr %12, align 4
  %36 = insertvalue { ptr, i32 } poison, ptr %34, 0
  %37 = insertvalue { ptr, i32 } %36, i32 %35, 1
  resume { ptr, i32 } %37
}