; Function Attrs: mustprogress uwtable
define internal fastcc noundef zeroext i1 @_ZL16SpeedRandomChunkNSt7__cxx1112basic_stringIcSt11char_traitsIcESaIcEEEm(ptr noundef nonnull readonly captures(none) %0, i64 noundef range(i64 16, 8193) %1) unnamed_addr #0 personality ptr @__gxx_personality_v0 {
  %3 = alloca [8192 x i8], align 16
  %4 = alloca %struct.TimeResults, align 4
  %5 = alloca %"class.std::function", align 8
  call void @llvm.lifetime.start.p0(i64 8192, ptr nonnull %3) #19
  call void @llvm.lifetime.start.p0(i64 8, ptr nonnull %4) #19
  %6 = getelementptr inbounds nuw i8, ptr %5, i64 16
  %7 = getelementptr inbounds nuw i8, ptr %5, i64 24
  store i64 %1, ptr %5, align 8, !tbaa !22
  %.sroa.5.0..sroa_idx = getelementptr inbounds nuw i8, ptr %5, i64 8
  store ptr %3, ptr %.sroa.5.0..sroa_idx, align 8, !tbaa !24
  store ptr @"_ZNSt17_Function_handlerIFbvEZL16SpeedRandomChunkNSt7__cxx1112basic_stringIcSt11char_traitsIcESaIcEEEmE3$_0E9_M_invokeERKSt9_Any_data", ptr %7, align 8, !tbaa !32
  store ptr @"_ZNSt17_Function_handlerIFbvEZL16SpeedRandomChunkNSt7__cxx1112basic_stringIcSt11char_traitsIcESaIcEEEmE3$_0E10_M_managerERSt9_Any_dataRKS9_St18_Manager_operation", ptr %6, align 8, !tbaa !35
  %8 = invoke fastcc noundef zeroext i1 @_ZL12TimeFunctionP11TimeResultsSt8functionIFbvEE(ptr noundef %4, ptr noundef %5)
          to label %9 unwind label %16

9:                                                ; preds = %2
  %10 = load ptr, ptr %6, align 8, !tbaa !35
  %.not.i = icmp eq ptr %10, null
  br i1 %.not.i, label %_ZNSt14_Function_baseD2Ev.exit, label %11

11:                                               ; preds = %9
  %12 = invoke noundef zeroext i1 %10(ptr noundef nonnull align 8 dereferenceable(32) %5, ptr noundef nonnull align 8 dereferenceable(32) %5, i32 noundef 3)
          to label %_ZNSt14_Function_baseD2Ev.exit unwind label %13

13:                                               ; preds = %11
  %14 = landingpad { ptr, i32 }
          catch ptr null
  %15 = extractvalue { ptr, i32 } %14, 0
  call void @__clang_call_terminate(ptr %15) #23
  unreachable

_ZNSt14_Function_baseD2Ev.exit:                   ; preds = %9, %11
  br i1 %8, label %24, label %38

16:                                               ; preds = %2
  %17 = landingpad { ptr, i32 }
          cleanup
  %18 = load ptr, ptr %6, align 8, !tbaa !35
  %.not.i6 = icmp eq ptr %18, null
  br i1 %.not.i6, label %_ZNSt14_Function_baseD2Ev.exit7, label %19

19:                                               ; preds = %16
  %20 = invoke noundef zeroext i1 %18(ptr noundef nonnull align 8 dereferenceable(32) %5, ptr noundef nonnull align 8 dereferenceable(32) %5, i32 noundef 3)
          to label %_ZNSt14_Function_baseD2Ev.exit7 unwind label %21

21:                                               ; preds = %19
  %22 = landingpad { ptr, i32 }
          catch ptr null
  %23 = extractvalue { ptr, i32 } %22, 0
  call void @__clang_call_terminate(ptr %23) #23
  unreachable

_ZNSt14_Function_baseD2Ev.exit7:                  ; preds = %16, %19
  call void @llvm.lifetime.end.p0(i64 8, ptr nonnull %4) #19
  call void @llvm.lifetime.end.p0(i64 8192, ptr nonnull %3) #19
  resume { ptr, i32 } %17

24:                                               ; preds = %_ZNSt14_Function_baseD2Ev.exit
  %25 = load i32, ptr %4, align 4, !tbaa !39
  %26 = load ptr, ptr %0, align 8, !tbaa !23
  %27 = getelementptr inbounds nuw i8, ptr %4, i64 4
  %28 = load i32, ptr %27, align 4, !tbaa !42
  %29 = uitofp i32 %25 to double
  %30 = uitofp i32 %28 to double
  %31 = fdiv double %29, %30
  %32 = fmul double %31, 1.000000e+06
  %33 = zext i32 %25 to i64
  %34 = mul nuw nsw i64 %1, %33
  %35 = uitofp nneg i64 %34 to double
  %36 = fdiv double %35, %30
  %37 = call i32 (ptr, ...) @printf(ptr noundef nonnull dereferenceable(1) @.str.30, i32 noundef %25, ptr noundef %26, i32 noundef %28, double noundef %32, double noundef %36)
  br label %38

38:                                               ; preds = %_ZNSt14_Function_baseD2Ev.exit, %24
  call void @llvm.lifetime.end.p0(i64 8, ptr nonnull %4) #19
  call void @llvm.lifetime.end.p0(i64 8192, ptr nonnull %3) #19
  ret i1 %8
}